target datalayout = "e-m:e-p270:32:32-p271:32:32-p272:64:64-i64:64-i128:128-f80:128-n8:16:32:64-S128"
target triple = "x86_64-unknown-linux-gnu"

; Function Attrs: mustprogress uwtable
define internal void @_ZN12_GLOBAL__N_145PrefetchTest_PrefetchToLocalCache_StackA_Test8TestBodyEv(ptr noundef nonnull align 8 dereferenceable(16) %this) unnamed_addr #4 align 2 {
entry:
  %addr.addr.i5 = alloca ptr, align 8
  %addr.addr.i4 = alloca ptr, align 8
  %addr.addr.i = alloca ptr, align 8
  %this.addr = alloca ptr, align 8
  %buf = alloca [100 x i8], align 16
  store ptr %this, ptr %this.addr, align 8
  call void @llvm.memset.p0.i64(ptr align 16 %buf, i8 0, i64 100, i1 false)
  %arraydecay = getelementptr inbounds [100 x i8], ptr %buf, i64 0, i64 0
  store ptr %arraydecay, ptr %addr.addr.i, align 8
  %0 = load ptr, ptr %addr.addr.i, align 8
  call void @llvm.prefetch.p0(ptr %0, i32 0, i32 3, i32 1)
  %arraydecay2 = getelementptr inbounds [100 x i8], ptr %buf, i64 0, i64 0
  store ptr %arraydecay2, ptr %addr.addr.i4, align 8
  %1 = load ptr, ptr %addr.addr.i4, align 8
  call void @llvm.prefetch.p0(ptr %1, i32 0, i32 0, i32 1)
  %arraydecay3 = getelementptr inbounds [100 x i8], ptr %buf, i64 0, i64 0
  store ptr %arraydecay3, ptr %addr.addr.i5, align 8
  %2 = load ptr, ptr %addr.addr.i5, align 8
  call void asm sideeffect "prefetchw $0", "*m,~{dirflag},~{fpsr},~{flags}"(ptr elementtype(i8) %2) #3, !srcloc !5
  ret void
}