; Function Attrs: mustprogress uwtable
define internal void @_ZN12_GLOBAL__N_145PrefetchTest_PrefetchToLocalCache_StackA_Test8TestBodyEv(ptr nocapture nonnull readnone align 8 %this) unnamed_addr #3 align 2 {
entry:
  %buf = alloca [100 x i8], align 16
  call void @llvm.memset.p0.i64(ptr noundef nonnull align 16 dereferenceable(100) %buf, i8 0, i64 100, i1 false)
  call void @llvm.prefetch.p0(ptr nonnull %buf, i32 0, i32 3, i32 1)
  call void @llvm.prefetch.p0(ptr nonnull %buf, i32 0, i32 0, i32 1)
  call void asm sideeffect "prefetchw $0", "*m,~{dirflag},~{fpsr},~{flags}"(ptr nonnull elementtype(i8) %buf) #13, !srcloc !5
  ret void
}